c__builtin__
set
p1
((lp2
Vhttps://baike.baidu.com/item/%E8%B0%A2%E5%B0%94%E7%9B%96%C2%B7%E5%B8%83%E6%9E%97
p3
aVhttps://baike.baidu.com/item/%E7%BE%8E%E5%9B%BD%E6%96%87%E7%90%86%E7%A7%91%E5%AD%A6%E9%99%A2
p4
aVhttps://baike.baidu.com/item/%E6%9D%8E%E6%B3%BD%E6%A5%B7
p5
aVhttps://baike.baidu.com/item/%E7%A1%85%E8%B0%B7%E4%B9%8B%E7%88%B6
p6
aVhttps://baike.baidu.com/item/%E8%8E%B1%E5%BE%B7
p7
aVhttps://baike.baidu.com/item/%E7%BE%8E%E5%9B%BD%E8%89%BA%E7%94%B5%E5%85%AC%E5%8F%B8
p8
aVhttps://baike.baidu.com/item/CEO/38500
p9
aVhttps://baike.baidu.com/item/%E6%B3%B0%E6%99%A4%E5%A3%AB%E9%AB%98%E7%AD%89%E6%95%99%E8%82%B2
p10
aVhttps://baike.baidu.com/item/%E5%9B%BE%E7%81%B5%E5%A5%96
p11
aVhttps://baike.baidu.com/item/%E6%8B%89%E9%87%8C%C2%B7%E4%BD%A9%E5%A5%87
p12
aVhttps://baike.baidu.com/item/%E5%88%98%E5%AE%8F%E6%81%A9
p13
aVhttps://baike.baidu.com/item/%E8%AF%BA%E8%B4%9D%E5%B0%94%E5%A5%96
p14
aVhttps://baike.baidu.com/item/%E5%A8%81%E5%BB%89%C2%B7%E4%BC%91%E5%88%A9%E7%89%B9
p15
aVhttps://baike.baidu.com/item/%E5%8B%92%E7%BA%B3
p16
aVhttps://baike.baidu.com/item/%E8%B0%B7%E6%AD%8C
p17
aVhttps://baike.baidu.com/item/%E9%A6%99%E6%B8%AF%E7%A7%91%E6%8A%80%E5%A4%A7%E5%AD%A6
p18
aVhttps://baike.baidu.com/item/NVIDIA
p19
aVhttps://baike.baidu.com/item/Tablo
p20
aVhttps://baike.baidu.com/item/%E5%8A%A0%E5%B7%9E%E5%A4%A7%E5%AD%A6%E4%BC%AF%E5%85%8B%E5%88%A9%E5%88%86%E6%A0%A1
p21
aVhttps://baike.baidu.com/item/%E5%8A%A0%E5%B7%9E%E5%A4%A7%E5%AD%A6%E6%B4%9B%E6%9D%89%E7%9F%B6%E5%88%86%E6%A0%A1
p22
atRp23
.